target datalayout = "e-m:e-p270:32:32-p271:32:32-p272:64:64-i64:64-i128:128-f80:128-n8:16:32:64-S128"
target triple = "x86_64-pc-linux-gnu"

@.str.2 = private unnamed_addr constant [15 x i8] c"#version 3.6;\0A\00", align 1
@.str.3 = private unnamed_addr constant [39 x i8] c"global_settings { assumed_gamma 1.0 }\0A\00", align 1
@.str.4 = private unnamed_addr constant [49 x i8] c"#default { finish { ambient 0.1 diffuse 0.9 } }\0A\00", align 1
@.str.5 = private unnamed_addr constant [69 x i8] c"#include \22colors.inc\22\0A#include \22textures.inc\22\0A#include \22shapes.inc\22\0A\00", align 1
@.str.6 = private unnamed_addr constant [19 x i8] c"#declare %s = %s;\0A\00", align 1
@.str.7 = private unnamed_addr constant [6 x i8] c"black\00", align 1
@.str.8 = private unnamed_addr constant [6 x i8] c"Black\00", align 1
@.str.9 = private unnamed_addr constant [6 x i8] c"white\00", align 1
@.str.10 = private unnamed_addr constant [6 x i8] c"White\00", align 1

; Function Attrs: nounwind uwtable
define internal void @pov_begin_job(ptr noundef %0) #0 {
  %2 = alloca ptr, align 8
  store ptr %0, ptr %2, align 8, !tbaa !3
  %3 = load ptr, ptr %2, align 8, !tbaa !3
  %4 = call i32 @gvputs(ptr noundef %3, ptr noundef @.str.2)
  %5 = load ptr, ptr %2, align 8, !tbaa !3
  %6 = call i32 @gvputs(ptr noundef %5, ptr noundef @.str.3)
  %7 = load ptr, ptr %2, align 8, !tbaa !3
  %8 = call i32 @gvputs(ptr noundef %7, ptr noundef @.str.4)
  %9 = load ptr, ptr %2, align 8, !tbaa !3
  %10 = call i32 @gvputs(ptr noundef %9, ptr noundef @.str.5)
  %11 = load ptr, ptr %2, align 8, !tbaa !3
  call void (ptr, ptr, ...) @gvprintf(ptr noundef %11, ptr noundef @.str.6, ptr noundef @.str.7, ptr noundef @.str.8)
  %12 = load ptr, ptr %2, align 8, !tbaa !3
  call void (ptr, ptr, ...) @gvprintf(ptr noundef %12, ptr noundef @.str.6, ptr noundef @.str.9, ptr noundef @.str.10)
  ret void
}