; Function Attrs: nounwind uwtable
define internal void @pov_begin_job(ptr noundef %0) #0 {
  %2 = tail call i32 @gvputs(ptr noundef %0, ptr noundef nonnull @.str.2) #18
  %3 = tail call i32 @gvputs(ptr noundef %0, ptr noundef nonnull @.str.3) #18
  %4 = tail call i32 @gvputs(ptr noundef %0, ptr noundef nonnull @.str.4) #18
  %5 = tail call i32 @gvputs(ptr noundef %0, ptr noundef nonnull @.str.5) #18
  tail call void (ptr, ptr, ...) @gvprintf(ptr noundef %0, ptr noundef nonnull @.str.6, ptr noundef nonnull @.str.7, ptr noundef nonnull @.str.8) #18
  tail call void (ptr, ptr, ...) @gvprintf(ptr noundef %0, ptr noundef nonnull @.str.6, ptr noundef nonnull @.str.9, ptr noundef nonnull @.str.10) #18
  ret void
}